; Function Attrs: mustprogress uwtable
define internal void @_ZN12_GLOBAL__N_127non_polling_poller_shutdownEP12grpc_pollsetP12grpc_closure(ptr noundef captures(none) %0, ptr noundef %1) #8 personality ptr @__gxx_personality_v0 {
  %3 = alloca %"class.absl::lts_20240722::log_internal::LogMessageFatal", align 8
  %4 = alloca %"class.grpc_core::DebugLocation", align 1
  %5 = alloca %"class.absl::lts_20240722::Status", align 8
  %.not.i = icmp eq ptr %1, null
  br i1 %.not.i, label %11, label %6, !prof !33

6:                                                ; preds = %2
  %7 = getelementptr inbounds nuw i8, ptr %0, i64 24
  store ptr %1, ptr %7, align 8, !tbaa !209
  %8 = getelementptr inbounds nuw i8, ptr %0, i64 16
  %9 = load ptr, ptr %8, align 8, !tbaa !200
  %10 = icmp eq ptr %9, null
  br i1 %10, label %16, label %.preheader

11:                                               ; preds = %2
  %12 = tail call noundef nonnull ptr @_ZN4absl12lts_2024072212log_internal17MakeCheckOpStringIPKvS4_EEPNSt7__cxx1112basic_stringIcSt11char_traitsIcESaIcEEET_T0_PKc(ptr noundef null, ptr noundef null, ptr noundef nonnull @.str.43)
  call void @llvm.lifetime.start.p0(i64 16, ptr nonnull %3) #36
  %13 = load ptr, ptr %12, align 8, !tbaa !74
  %14 = getelementptr inbounds nuw i8, ptr %12, i64 8
  %15 = load i64, ptr %14, align 8, !tbaa !78
  call void @_ZN4absl12lts_2024072212log_internal15LogMessageFatalC1EPKciSt17basic_string_viewIcSt11char_traitsIcEE(ptr noundef nonnull align 8 dereferenceable(16) %3, ptr noundef nonnull @.str, i32 noundef 176, i64 %15, ptr %13) #38
  call void @_ZN4absl12lts_2024072212log_internal15LogMessageFatalD1Ev(ptr noundef nonnull align 8 dereferenceable(16) %3) #37
  unreachable

16:                                               ; preds = %6
  call void @llvm.lifetime.start.p0(i64 1, ptr nonnull %4) #36
  store i64 1, ptr %5, align 8, !tbaa !95, !alias.scope !227
  invoke void @_ZN9grpc_core7ExecCtx3RunERKNS_13DebugLocationEP12grpc_closureN4absl12lts_202407226StatusE(ptr noundef nonnull align 1 dereferenceable(1) %4, ptr noundef nonnull %1, ptr noundef nonnull %5)
          to label %17 unwind label %25

17:                                               ; preds = %16
  %18 = load i64, ptr %5, align 8, !tbaa !95
  %19 = and i64 %18, 1
  %.not.i.i = icmp eq i64 %19, 0
  br i1 %.not.i.i, label %20, label %_ZN4absl12lts_202407226StatusD2Ev.exit

20:                                               ; preds = %17
  %21 = inttoptr i64 %18 to ptr
  invoke void @_ZNK4absl12lts_2024072215status_internal9StatusRep5UnrefEv(ptr noundef nonnull align 8 dereferenceable(48) %21)
          to label %_ZN4absl12lts_202407226StatusD2Ev.exit unwind label %22

22:                                               ; preds = %20
  %23 = landingpad { ptr, i32 }
          catch ptr null
  %24 = extractvalue { ptr, i32 } %23, 0
  call void @__clang_call_terminate(ptr %24) #37
  unreachable

_ZN4absl12lts_202407226StatusD2Ev.exit:           ; preds = %17, %20
  call void @llvm.lifetime.end.p0(i64 1, ptr nonnull %4) #36
  br label %.loopexit

25:                                               ; preds = %16
  %26 = landingpad { ptr, i32 }
          cleanup
  call void @_ZN4absl12lts_202407226StatusD2Ev(ptr noundef nonnull align 8 dereferenceable(8) %5) #36
  call void @llvm.lifetime.end.p0(i64 1, ptr nonnull %4) #36
  resume { ptr, i32 } %26

.preheader:                                       ; preds = %6, %.preheader
  %.0 = phi ptr [ %28, %.preheader ], [ %9, %6 ]
  tail call void @gpr_cv_signal(ptr noundef %.0)
  %27 = getelementptr inbounds nuw i8, ptr %.0, i64 16
  %28 = load ptr, ptr %27, align 8, !tbaa !217
  %29 = load ptr, ptr %8, align 8, !tbaa !200
  %.not13 = icmp eq ptr %28, %29
  br i1 %.not13, label %.loopexit, label %.preheader, !llvm.loop !230

.loopexit:                                        ; preds = %.preheader, %_ZN4absl12lts_202407226StatusD2Ev.exit
  ret void
}